target datalayout = "e-m:e-p270:32:32-p271:32:32-p272:64:64-i64:64-i128:128-f80:128-n8:16:32:64-S128"
target triple = "x86_64-pc-linux-gnu"

%struct.ssl_connection_st = type { %struct.ssl_st, ptr, i32, ptr, ptr, ptr, i32, ptr, i32, i32, i32, i32, %struct.OSSL_TIME, %struct.OSSL_TIME, %struct.ossl_statem_st, i32, ptr, ptr, i64, i64, i64, %struct.ossl_quic_tls_callbacks_st, ptr, ptr, %struct.anon, ptr, ptr, ptr, i32, ptr, %struct.ssl_dane_st, ptr, ptr, ptr, ptr, i32, [64 x i8], [64 x i8], [64 x i8], [64 x i8], [64 x i8], [64 x i8], [64 x i8], [64 x i8], [64 x i8], [64 x i8], [64 x i8], [64 x i8], ptr, [64 x i8], i64, i32, i64, [32 x i8], ptr, ptr, ptr, i64, ptr, [32 x i8], i64, i32, ptr, ptr, i32, i32, ptr, ptr, ptr, ptr, ptr, i64, ptr, ptr, i64, i32, i32, i32, i64, i32, i32, i64, i64, i64, %struct.anon.1, ptr, i32, ptr, ptr, ptr, i32, ptr, ptr, ptr, i32, i32, i32, i32, ptr, i64, i32, ptr, %struct.srp_ctx_st, ptr, %struct.record_layer_st, ptr, ptr, ptr, ptr, i64, i32, i32, i32, i64, i64, i64, ptr, ptr, ptr, ptr, ptr, i64, ptr, i64, ptr, i64 }
%struct.ssl_st = type { i32, ptr, ptr, ptr, %struct.CRYPTO_REF_COUNT, ptr, %struct.crypto_ex_data_st }
%struct.CRYPTO_REF_COUNT = type { i32 }
%struct.crypto_ex_data_st = type { ptr, ptr }
%struct.OSSL_TIME = type { i64 }
%struct.ossl_statem_st = type { i32, i32, i32, i32, i32, i32, i32, i32, i32, i32, i32, i32, i32, ptr, ptr, ptr, i8 }
%struct.ossl_quic_tls_callbacks_st = type { ptr, ptr, ptr, ptr, ptr, ptr }
%struct.anon = type { i64, [32 x i8], [32 x i8], ptr, ptr, i32, i32, i32, i32, [2 x i8], i32, i32, i32, i32, %struct.anon.0, [64 x i8], i64, [64 x i8], i64, i32, i32, ptr, i64, ptr, i64, i32, i8, i8, i16, ptr, i16 }
%struct.anon.0 = type { [128 x i8], i64, [128 x i8], i64, i64, i32, ptr, ptr, [4 x ptr], [4 x i16], i64, i32, ptr, i64, ptr, i64, ptr, ptr, ptr, i32, i64, ptr, i32, ptr, i64, ptr, i64, ptr, i64, ptr, ptr, ptr, ptr, i64, i64, ptr, ptr, i32, i32, i32, i32 }
%struct.ssl_dane_st = type { ptr, ptr, ptr, ptr, ptr, i32, i32, i32, i64 }
%struct.anon.1 = type { [29 x i8], ptr, ptr, ptr, i32, ptr, i16, i32, %struct.anon.2, i32, i32, i64, ptr, i64, ptr, i64, ptr, i64, ptr, i64, ptr, i64, ptr, ptr, ptr, ptr, ptr, ptr, ptr, i64, ptr, i64, i32, i32, i32, i32, ptr, i64, i32, i8, i32, [4 x i32], i32, i8, i8, i8, i8 }
%struct.anon.2 = type { ptr, ptr, ptr, i64 }
%struct.srp_ctx_st = type { ptr, ptr, ptr, ptr, ptr, ptr, ptr, ptr, ptr, ptr, ptr, ptr, ptr, ptr, i32, i64 }
%struct.record_layer_st = type { ptr, ptr, ptr, ptr, ptr, ptr, ptr, ptr, i64, i32, i64, [4 x i8], i64, i64, i8, ptr, i32, ptr, ptr, ptr, i64, i64, i64, i64, [32 x %struct.tls_record_st] }
%struct.tls_record_st = type { ptr, i32, i8, ptr, ptr, i64, i64, i16, [8 x i8] }
%struct.ssl_method_st = type { i32, i32, i64, ptr, ptr, ptr, ptr, ptr, ptr, ptr, ptr, ptr, ptr, ptr, ptr, ptr, ptr, ptr, ptr, ptr, ptr, ptr, ptr, ptr, ptr, ptr, ptr, ptr, ptr, ptr, ptr, ptr }
%struct.ssl3_enc_method = type { ptr, ptr, ptr, ptr, ptr, i64, ptr, i64, ptr, ptr, i32, ptr, ptr, ptr }
%struct.ssl_session_st = type { i32, i64, [64 x i8], [512 x i8], i64, [32 x i8], i64, [32 x i8], ptr, ptr, i32, ptr, ptr, ptr, i64, %struct.OSSL_TIME, %struct.OSSL_TIME, %struct.OSSL_TIME, i32, ptr, i64, i32, %struct.crypto_ex_data_st, %struct.anon.3, ptr, ptr, i64, i32, ptr, ptr, ptr, %struct.CRYPTO_REF_COUNT }
%struct.anon.3 = type { ptr, ptr, i64, i64, i32, i32, ptr, i64, i8 }

@.str.1 = private unnamed_addr constant [36 x i8] c"../openssl/ssl/statem/statem_srvr.c\00", align 1
@__func__.tls_process_client_rpk = private unnamed_addr constant [23 x i8] c"tls_process_client_rpk\00", align 1

; Function Attrs: inlinehint nounwind uwtable
define internal ptr @ossl_check_X509_freefunc_type(ptr noundef %0) #3 {
  %2 = alloca ptr, align 8
  store ptr %0, ptr %2, align 8, !tbaa !3
  %3 = load ptr, ptr %2, align 8, !tbaa !3
  ret ptr %3
}

; Function Attrs: inlinehint nounwind uwtable
define internal ptr @ossl_check_X509_sk_type(ptr noundef %0) #3 {
  %2 = alloca ptr, align 8
  store ptr %0, ptr %2, align 8, !tbaa !238
  %3 = load ptr, ptr %2, align 8, !tbaa !238
  ret ptr %3
}

; Function Attrs: nounwind uwtable
define i32 @tls_process_client_rpk(ptr noundef %0, ptr noundef %1) #0 {
  %3 = alloca ptr, align 8
  %4 = alloca ptr, align 8
  %5 = alloca i32, align 4
  %6 = alloca ptr, align 8
  %7 = alloca ptr, align 8
  store ptr %0, ptr %3, align 8, !tbaa !11
  store ptr %1, ptr %4, align 8, !tbaa !3
  call void @llvm.lifetime.start.p0(i64 4, ptr %5) #9
  store i32 0, ptr %5, align 4, !tbaa !13
  call void @llvm.lifetime.start.p0(i64 8, ptr %6) #9
  store ptr null, ptr %6, align 8, !tbaa !212
  call void @llvm.lifetime.start.p0(i64 8, ptr %7) #9
  store ptr null, ptr %7, align 8, !tbaa !177
  %8 = load ptr, ptr %3, align 8, !tbaa !11
  %9 = load ptr, ptr %4, align 8, !tbaa !3
  %10 = call i32 @tls_process_rpk(ptr noundef %8, ptr noundef %9, ptr noundef %7)
  %11 = icmp ne i32 %10, 0
  br i1 %11, label %13, label %12

12:                                               ; preds = %2
  br label %147

13:                                               ; preds = %2
  %14 = load ptr, ptr %7, align 8, !tbaa !177
  %15 = icmp eq ptr %14, null
  br i1 %15, label %16, label %31

16:                                               ; preds = %13
  %17 = load ptr, ptr %3, align 8, !tbaa !11
  %18 = getelementptr inbounds nuw %struct.ssl_connection_st, ptr %17, i32 0, i32 61
  %19 = load i32, ptr %18, align 8, !tbaa !86
  %20 = and i32 %19, 2
  %21 = icmp ne i32 %20, 0
  br i1 %21, label %22, label %30

22:                                               ; preds = %16
  %23 = load ptr, ptr %3, align 8, !tbaa !11
  %24 = getelementptr inbounds nuw %struct.ssl_connection_st, ptr %23, i32 0, i32 61
  %25 = load i32, ptr %24, align 8, !tbaa !86
  %26 = and i32 %25, 1
  %27 = icmp ne i32 %26, 0
  br i1 %27, label %28, label %30

28:                                               ; preds = %22
  call void @ERR_new()
  call void @ERR_set_debug(ptr noundef @.str.1, i32 noundef 3532, ptr noundef @__func__.tls_process_client_rpk)
  %29 = load ptr, ptr %3, align 8, !tbaa !11
  call void (ptr, i32, i32, ptr, ...) @ossl_statem_fatal(ptr noundef %29, i32 noundef 116, i32 noundef 199, ptr noundef null)
  br label %147

30:                                               ; preds = %22, %16
  br label %44

31:                                               ; preds = %13
  %32 = load ptr, ptr %3, align 8, !tbaa !11
  %33 = load ptr, ptr %7, align 8, !tbaa !177
  %34 = call i32 @ssl_verify_rpk(ptr noundef %32, ptr noundef %33)
  %35 = icmp sle i32 %34, 0
  br i1 %35, label %36, label %43

36:                                               ; preds = %31
  call void @ERR_new()
  call void @ERR_set_debug(ptr noundef @.str.1, i32 noundef 3538, ptr noundef @__func__.tls_process_client_rpk)
  %37 = load ptr, ptr %3, align 8, !tbaa !11
  %38 = load ptr, ptr %3, align 8, !tbaa !11
  %39 = getelementptr inbounds nuw %struct.ssl_connection_st, ptr %38, i32 0, i32 71
  %40 = load i64, ptr %39, align 8, !tbaa !243
  %41 = trunc i64 %40 to i32
  %42 = call i32 @ssl_x509err2alert(i32 noundef %41)
  call void (ptr, i32, i32, ptr, ...) @ossl_statem_fatal(ptr noundef %37, i32 noundef %42, i32 noundef 134, ptr noundef null)
  br label %147

43:                                               ; preds = %31
  br label %44

44:                                               ; preds = %43, %30
  %45 = load ptr, ptr %3, align 8, !tbaa !11
  %46 = getelementptr inbounds nuw %struct.ssl_connection_st, ptr %45, i32 0, i32 96
  %47 = load i32, ptr %46, align 8, !tbaa !95
  %48 = icmp eq i32 %47, 4
  br i1 %48, label %49, label %64

49:                                               ; preds = %44
  %50 = load ptr, ptr %3, align 8, !tbaa !11
  %51 = getelementptr inbounds nuw %struct.ssl_connection_st, ptr %50, i32 0, i32 54
  %52 = load ptr, ptr %51, align 8, !tbaa !97
  %53 = call ptr @ssl_session_dup(ptr noundef %52, i32 noundef 0)
  store ptr %53, ptr %6, align 8, !tbaa !212
  %54 = icmp eq ptr %53, null
  br i1 %54, label %55, label %57

55:                                               ; preds = %49
  call void @ERR_new()
  call void @ERR_set_debug(ptr noundef @.str.1, i32 noundef 3553, ptr noundef @__func__.tls_process_client_rpk)
  %56 = load ptr, ptr %3, align 8, !tbaa !11
  call void (ptr, i32, i32, ptr, ...) @ossl_statem_fatal(ptr noundef %56, i32 noundef 80, i32 noundef 786688, ptr noundef null)
  br label %147

57:                                               ; preds = %49
  %58 = load ptr, ptr %3, align 8, !tbaa !11
  %59 = getelementptr inbounds nuw %struct.ssl_connection_st, ptr %58, i32 0, i32 54
  %60 = load ptr, ptr %59, align 8, !tbaa !97
  call void @SSL_SESSION_free(ptr noundef %60)
  %61 = load ptr, ptr %6, align 8, !tbaa !212
  %62 = load ptr, ptr %3, align 8, !tbaa !11
  %63 = getelementptr inbounds nuw %struct.ssl_connection_st, ptr %62, i32 0, i32 54
  store ptr %61, ptr %63, align 8, !tbaa !97
  br label %64

64:                                               ; preds = %57, %44
  %65 = load ptr, ptr %3, align 8, !tbaa !11
  %66 = getelementptr inbounds nuw %struct.ssl_connection_st, ptr %65, i32 0, i32 54
  %67 = load ptr, ptr %66, align 8, !tbaa !97
  %68 = getelementptr inbounds nuw %struct.ssl_session_st, ptr %67, i32 0, i32 12
  %69 = load ptr, ptr %68, align 8, !tbaa !101
  call void @X509_free(ptr noundef %69)
  %70 = load ptr, ptr %3, align 8, !tbaa !11
  %71 = getelementptr inbounds nuw %struct.ssl_connection_st, ptr %70, i32 0, i32 54
  %72 = load ptr, ptr %71, align 8, !tbaa !97
  %73 = getelementptr inbounds nuw %struct.ssl_session_st, ptr %72, i32 0, i32 12
  store ptr null, ptr %73, align 8, !tbaa !101
  %74 = load ptr, ptr %3, align 8, !tbaa !11
  %75 = getelementptr inbounds nuw %struct.ssl_connection_st, ptr %74, i32 0, i32 54
  %76 = load ptr, ptr %75, align 8, !tbaa !97
  %77 = getelementptr inbounds nuw %struct.ssl_session_st, ptr %76, i32 0, i32 13
  %78 = load ptr, ptr %77, align 8, !tbaa !245
  %79 = call ptr @ossl_check_X509_sk_type(ptr noundef %78)
  %80 = call ptr @ossl_check_X509_freefunc_type(ptr noundef @X509_free)
  call void @OPENSSL_sk_pop_free(ptr noundef %79, ptr noundef %80)
  %81 = load ptr, ptr %3, align 8, !tbaa !11
  %82 = getelementptr inbounds nuw %struct.ssl_connection_st, ptr %81, i32 0, i32 54
  %83 = load ptr, ptr %82, align 8, !tbaa !97
  %84 = getelementptr inbounds nuw %struct.ssl_session_st, ptr %83, i32 0, i32 13
  store ptr null, ptr %84, align 8, !tbaa !245
  %85 = load ptr, ptr %3, align 8, !tbaa !11
  %86 = getelementptr inbounds nuw %struct.ssl_connection_st, ptr %85, i32 0, i32 54
  %87 = load ptr, ptr %86, align 8, !tbaa !97
  %88 = getelementptr inbounds nuw %struct.ssl_session_st, ptr %87, i32 0, i32 11
  %89 = load ptr, ptr %88, align 8, !tbaa !98
  call void @EVP_PKEY_free(ptr noundef %89)
  %90 = load ptr, ptr %7, align 8, !tbaa !177
  %91 = load ptr, ptr %3, align 8, !tbaa !11
  %92 = getelementptr inbounds nuw %struct.ssl_connection_st, ptr %91, i32 0, i32 54
  %93 = load ptr, ptr %92, align 8, !tbaa !97
  %94 = getelementptr inbounds nuw %struct.ssl_session_st, ptr %93, i32 0, i32 11
  store ptr %90, ptr %94, align 8, !tbaa !98
  store ptr null, ptr %7, align 8, !tbaa !177
  %95 = load ptr, ptr %3, align 8, !tbaa !11
  %96 = getelementptr inbounds nuw %struct.ssl_connection_st, ptr %95, i32 0, i32 71
  %97 = load i64, ptr %96, align 8, !tbaa !243
  %98 = load ptr, ptr %3, align 8, !tbaa !11
  %99 = getelementptr inbounds nuw %struct.ssl_connection_st, ptr %98, i32 0, i32 54
  %100 = load ptr, ptr %99, align 8, !tbaa !97
  %101 = getelementptr inbounds nuw %struct.ssl_session_st, ptr %100, i32 0, i32 14
  store i64 %97, ptr %101, align 8, !tbaa !244
  %102 = load ptr, ptr %3, align 8, !tbaa !11
  %103 = getelementptr inbounds nuw %struct.ssl_connection_st, ptr %102, i32 0, i32 0
  %104 = getelementptr inbounds nuw %struct.ssl_st, ptr %103, i32 0, i32 3
  %105 = load ptr, ptr %104, align 8, !tbaa !17
  %106 = getelementptr inbounds nuw %struct.ssl_method_st, ptr %105, i32 0, i32 28
  %107 = load ptr, ptr %106, align 8, !tbaa !77
  %108 = getelementptr inbounds nuw %struct.ssl3_enc_method, ptr %107, i32 0, i32 10
  %109 = load i32, ptr %108, align 8, !tbaa !80
  %110 = and i32 %109, 8
  %111 = icmp ne i32 %110, 0
  br i1 %111, label %146, label %112

112:                                              ; preds = %64
  %113 = load ptr, ptr %3, align 8, !tbaa !11
  %114 = getelementptr inbounds nuw %struct.ssl_connection_st, ptr %113, i32 0, i32 0
  %115 = getelementptr inbounds nuw %struct.ssl_st, ptr %114, i32 0, i32 3
  %116 = load ptr, ptr %115, align 8, !tbaa !17
  %117 = getelementptr inbounds nuw %struct.ssl_method_st, ptr %116, i32 0, i32 0
  %118 = load i32, ptr %117, align 8, !tbaa !82
  %119 = icmp sge i32 %118, 772
  br i1 %119, label %120, label %146

120:                                              ; preds = %112
  %121 = load ptr, ptr %3, align 8, !tbaa !11
  %122 = getelementptr inbounds nuw %struct.ssl_connection_st, ptr %121, i32 0, i32 0
  %123 = getelementptr inbounds nuw %struct.ssl_st, ptr %122, i32 0, i32 3
  %124 = load ptr, ptr %123, align 8, !tbaa !17
  %125 = getelementptr inbounds nuw %struct.ssl_method_st, ptr %124, i32 0, i32 0
  %126 = load i32, ptr %125, align 8, !tbaa !82
  %127 = icmp ne i32 %126, 65536
  br i1 %127, label %128, label %146

128:                                              ; preds = %120
  %129 = load ptr, ptr %3, align 8, !tbaa !11
  %130 = call i32 @ssl3_digest_cached_records(ptr noundef %129, i32 noundef 1)
  %131 = icmp ne i32 %130, 0
  br i1 %131, label %133, label %132

132:                                              ; preds = %128
  br label %147

133:                                              ; preds = %128
  %134 = load ptr, ptr %3, align 8, !tbaa !11
  %135 = load ptr, ptr %3, align 8, !tbaa !11
  %136 = getelementptr inbounds nuw %struct.ssl_connection_st, ptr %135, i32 0, i32 49
  %137 = getelementptr inbounds [64 x i8], ptr %136, i64 0, i64 0
  %138 = load ptr, ptr %3, align 8, !tbaa !11
  %139 = getelementptr inbounds nuw %struct.ssl_connection_st, ptr %138, i32 0, i32 50
  %140 = call i32 @ssl_handshake_hash(ptr noundef %134, ptr noundef %137, i64 noundef 64, ptr noundef %139)
  %141 = icmp ne i32 %140, 0
  br i1 %141, label %143, label %142

142:                                              ; preds = %133
  br label %147

143:                                              ; preds = %133
  %144 = load ptr, ptr %3, align 8, !tbaa !11
  %145 = getelementptr inbounds nuw %struct.ssl_connection_st, ptr %144, i32 0, i32 114
  store i64 0, ptr %145, align 8, !tbaa !124
  br label %146

146:                                              ; preds = %143, %120, %112, %64
  store i32 3, ptr %5, align 4, !tbaa !13
  br label %147

147:                                              ; preds = %146, %142, %132, %55, %36, %28, %12
  %148 = load ptr, ptr %7, align 8, !tbaa !177
  call void @EVP_PKEY_free(ptr noundef %148)
  %149 = load i32, ptr %5, align 4, !tbaa !13
  call void @llvm.lifetime.end.p0(i64 8, ptr %7) #9
  call void @llvm.lifetime.end.p0(i64 8, ptr %6) #9
  call void @llvm.lifetime.end.p0(i64 4, ptr %5) #9
  ret i32 %149
}