; Function Attrs: nounwind uwtable
define range(i32 0, 4) i32 @tls_process_client_rpk(ptr noundef %0, ptr noundef %1) local_unnamed_addr #1 {
  %3 = alloca ptr, align 8
  call void @llvm.lifetime.start.p0(i64 8, ptr nonnull %3) #12
  store ptr null, ptr %3, align 8, !tbaa !288
  %4 = call i32 @tls_process_rpk(ptr noundef %0, ptr noundef %1, ptr noundef nonnull %3) #12
  %.not = icmp eq i32 %4, 0
  br i1 %.not, label %69, label %5

5:                                                ; preds = %2
  %6 = load ptr, ptr %3, align 8, !tbaa !288
  %7 = icmp eq ptr %6, null
  br i1 %7, label %8, label %13

8:                                                ; preds = %5
  %9 = getelementptr inbounds nuw i8, ptr %0, i64 2384
  %10 = load i32, ptr %9, align 8, !tbaa !88
  %11 = and i32 %10, 3
  %or.cond.not = icmp eq i32 %11, 3
  br i1 %or.cond.not, label %12, label %21

12:                                               ; preds = %8
  call void @ERR_new() #12
  call void @ERR_set_debug(ptr noundef nonnull @.str.1, i32 noundef 3532, ptr noundef nonnull @__func__.tls_process_client_rpk) #12
  call void (ptr, i32, i32, ptr, ...) @ossl_statem_fatal(ptr noundef nonnull %0, i32 noundef 116, i32 noundef 199, ptr noundef null) #12
  br label %69

13:                                               ; preds = %5
  %14 = call i32 @ssl_verify_rpk(ptr noundef %0, ptr noundef nonnull %6) #12
  %15 = icmp slt i32 %14, 1
  br i1 %15, label %16, label %21

16:                                               ; preds = %13
  call void @ERR_new() #12
  call void @ERR_set_debug(ptr noundef nonnull @.str.1, i32 noundef 3538, ptr noundef nonnull @__func__.tls_process_client_rpk) #12
  %17 = getelementptr inbounds nuw i8, ptr %0, i64 2456
  %18 = load i64, ptr %17, align 8, !tbaa !232
  %19 = trunc i64 %18 to i32
  %20 = call i32 @ssl_x509err2alert(i32 noundef %19) #12
  call void (ptr, i32, i32, ptr, ...) @ossl_statem_fatal(ptr noundef %0, i32 noundef %20, i32 noundef 134, ptr noundef null) #12
  br label %69

21:                                               ; preds = %13, %8
  %22 = getelementptr inbounds nuw i8, ptr %0, i64 2984
  %23 = load i32, ptr %22, align 8, !tbaa !85
  %24 = icmp eq i32 %23, 4
  %25 = getelementptr inbounds nuw i8, ptr %0, i64 2304
  %26 = load ptr, ptr %25, align 8, !tbaa !79
  br i1 %24, label %27, label %._crit_edge

27:                                               ; preds = %21
  %28 = call ptr @ssl_session_dup(ptr noundef %26, i32 noundef 0) #12
  %29 = icmp eq ptr %28, null
  br i1 %29, label %30, label %31

30:                                               ; preds = %27
  call void @ERR_new() #12
  call void @ERR_set_debug(ptr noundef nonnull @.str.1, i32 noundef 3553, ptr noundef nonnull @__func__.tls_process_client_rpk) #12
  call void (ptr, i32, i32, ptr, ...) @ossl_statem_fatal(ptr noundef nonnull %0, i32 noundef 80, i32 noundef 786688, ptr noundef null) #12
  br label %69

31:                                               ; preds = %27
  %32 = load ptr, ptr %25, align 8, !tbaa !79
  call void @SSL_SESSION_free(ptr noundef %32) #12
  store ptr %28, ptr %25, align 8, !tbaa !79
  br label %._crit_edge

._crit_edge:                                      ; preds = %21, %31
  %33 = phi ptr [ %28, %31 ], [ %26, %21 ]
  %34 = getelementptr inbounds nuw i8, ptr %0, i64 2304
  %35 = getelementptr inbounds nuw i8, ptr %33, i64 704
  %36 = load ptr, ptr %35, align 8, !tbaa !83
  call void @X509_free(ptr noundef %36) #12
  %37 = load ptr, ptr %34, align 8, !tbaa !79
  %38 = getelementptr inbounds nuw i8, ptr %37, i64 704
  store ptr null, ptr %38, align 8, !tbaa !83
  %39 = getelementptr inbounds nuw i8, ptr %37, i64 712
  %40 = load ptr, ptr %39, align 8, !tbaa !234
  call void @OPENSSL_sk_pop_free(ptr noundef %40, ptr noundef nonnull @X509_free) #12
  %41 = load ptr, ptr %34, align 8, !tbaa !79
  %42 = getelementptr inbounds nuw i8, ptr %41, i64 712
  store ptr null, ptr %42, align 8, !tbaa !234
  %43 = getelementptr inbounds nuw i8, ptr %41, i64 696
  %44 = load ptr, ptr %43, align 8, !tbaa !80
  call void @EVP_PKEY_free(ptr noundef %44) #12
  %45 = load ptr, ptr %3, align 8, !tbaa !288
  %46 = load ptr, ptr %34, align 8, !tbaa !79
  %47 = getelementptr inbounds nuw i8, ptr %46, i64 696
  store ptr %45, ptr %47, align 8, !tbaa !80
  store ptr null, ptr %3, align 8, !tbaa !288
  %48 = getelementptr inbounds nuw i8, ptr %0, i64 2456
  %49 = load i64, ptr %48, align 8, !tbaa !232
  %50 = getelementptr inbounds nuw i8, ptr %46, i64 720
  store i64 %49, ptr %50, align 8, !tbaa !233
  %51 = getelementptr inbounds nuw i8, ptr %0, i64 24
  %52 = load ptr, ptr %51, align 8, !tbaa !3
  %53 = getelementptr inbounds nuw i8, ptr %52, i64 216
  %54 = load ptr, ptr %53, align 8, !tbaa !69
  %55 = getelementptr inbounds nuw i8, ptr %54, i64 80
  %56 = load i32, ptr %55, align 8, !tbaa !72
  %57 = and i32 %56, 8
  %.not35 = icmp eq i32 %57, 0
  br i1 %.not35, label %58, label %69

58:                                               ; preds = %._crit_edge
  %59 = load i32, ptr %52, align 8, !tbaa !74
  %60 = icmp slt i32 %59, 772
  %.not36 = icmp eq i32 %59, 65536
  %or.cond39 = or i1 %60, %.not36
  br i1 %or.cond39, label %69, label %61

61:                                               ; preds = %58
  %62 = call i32 @ssl3_digest_cached_records(ptr noundef nonnull %0, i32 noundef 1) #12
  %.not37 = icmp eq i32 %62, 0
  br i1 %.not37, label %69, label %63

63:                                               ; preds = %61
  %64 = getelementptr inbounds nuw i8, ptr %0, i64 2184
  %65 = getelementptr inbounds nuw i8, ptr %0, i64 2248
  %66 = call i32 @ssl_handshake_hash(ptr noundef nonnull %0, ptr noundef nonnull %64, i64 noundef 64, ptr noundef nonnull %65) #12
  %.not38 = icmp eq i32 %66, 0
  br i1 %.not38, label %69, label %67

67:                                               ; preds = %63
  %68 = getelementptr inbounds nuw i8, ptr %0, i64 5464
  store i64 0, ptr %68, align 8, !tbaa !104
  br label %69

69:                                               ; preds = %._crit_edge, %58, %67, %63, %61, %2, %30, %16, %12
  %.0 = phi i32 [ 0, %12 ], [ 0, %30 ], [ 0, %63 ], [ 0, %61 ], [ 0, %16 ], [ 0, %2 ], [ 3, %67 ], [ 3, %58 ], [ 3, %._crit_edge ]
  %70 = load ptr, ptr %3, align 8, !tbaa !288
  call void @EVP_PKEY_free(ptr noundef %70) #12
  call void @llvm.lifetime.end.p0(i64 8, ptr nonnull %3) #12
  ret i32 %.0
}